target datalayout = "e-m:e-p270:32:32-p271:32:32-p272:64:64-i64:64-i128:128-f80:128-n8:16:32:64-S128"
target triple = "x86_64-pc-linux-gnu"

%"class.cvtest::ArrayTest" = type { %"class.cvtest::BaseTest", i8, i8, i8, i8, i32, i32, %"class.std::vector", %"class.std::vector.3", [4 x float] }
%"class.cvtest::BaseTest" = type { ptr, i32, %"class.std::__cxx11::basic_string", ptr }
%"class.std::__cxx11::basic_string" = type { %"struct.std::__cxx11::basic_string<char>::_Alloc_hider", i64, %union.anon }
%"struct.std::__cxx11::basic_string<char>::_Alloc_hider" = type { ptr }
%union.anon = type { i64, [8 x i8] }
%"class.std::vector" = type { %"struct.std::_Vector_base" }
%"struct.std::_Vector_base" = type { %"struct.std::_Vector_base<std::vector<void *>, std::allocator<std::vector<void *>>>::_Vector_impl" }
%"struct.std::_Vector_base<std::vector<void *>, std::allocator<std::vector<void *>>>::_Vector_impl" = type { %"struct.std::_Vector_base<std::vector<void *>, std::allocator<std::vector<void *>>>::_Vector_impl_data" }
%"struct.std::_Vector_base<std::vector<void *>, std::allocator<std::vector<void *>>>::_Vector_impl_data" = type { ptr, ptr, ptr }
%"class.std::vector.3" = type { %"struct.std::_Vector_base.4" }
%"struct.std::_Vector_base.4" = type { %"struct.std::_Vector_base<std::vector<cv::Mat>, std::allocator<std::vector<cv::Mat>>>::_Vector_impl" }
%"struct.std::_Vector_base<std::vector<cv::Mat>, std::allocator<std::vector<cv::Mat>>>::_Vector_impl" = type { %"struct.std::_Vector_base<std::vector<cv::Mat>, std::allocator<std::vector<cv::Mat>>>::_Vector_impl_data" }
%"struct.std::_Vector_base<std::vector<cv::Mat>, std::allocator<std::vector<cv::Mat>>>::_Vector_impl_data" = type { ptr, ptr, ptr }
%"class.std::vector.8" = type { %"struct.std::_Vector_base.9" }
%"struct.std::_Vector_base.9" = type { %"struct.std::_Vector_base<void *, std::allocator<void *>>::_Vector_impl" }
%"struct.std::_Vector_base<void *, std::allocator<void *>>::_Vector_impl" = type { %"struct.std::_Vector_base<void *, std::allocator<void *>>::_Vector_impl_data" }
%"struct.std::_Vector_base<void *, std::allocator<void *>>::_Vector_impl_data" = type { ptr, ptr, ptr }

; Function Attrs: mustprogress nounwind uwtable
define linkonce_odr hidden noundef nonnull align 8 dereferenceable(8) ptr @_ZNSt6vectorIPvSaIS0_EEixEm(ptr noundef nonnull align 8 dereferenceable(24) %0, i64 noundef %1) #7 comdat align 2 {
  %3 = alloca ptr, align 8
  %4 = alloca i64, align 8
  store ptr %0, ptr %3, align 8, !tbaa !54
  store i64 %1, ptr %4, align 8, !tbaa !46
  %5 = load ptr, ptr %3, align 8
  %6 = getelementptr inbounds nuw %"struct.std::_Vector_base.9", ptr %5, i32 0, i32 0
  %7 = getelementptr inbounds nuw %"struct.std::_Vector_base<void *, std::allocator<void *>>::_Vector_impl_data", ptr %6, i32 0, i32 0
  %8 = load ptr, ptr %7, align 8, !tbaa !58
  %9 = load i64, ptr %4, align 8, !tbaa !46
  %10 = getelementptr inbounds nuw ptr, ptr %8, i64 %9
  ret ptr %10
}

; Function Attrs: mustprogress nounwind uwtable
define linkonce_odr hidden noundef i64 @_ZNKSt6vectorIPvSaIS0_EE4sizeEv(ptr noundef nonnull align 8 dereferenceable(24) %0) #7 comdat align 2 {
  %2 = alloca ptr, align 8
  store ptr %0, ptr %2, align 8, !tbaa !54
  %3 = load ptr, ptr %2, align 8
  %4 = getelementptr inbounds nuw %"struct.std::_Vector_base.9", ptr %3, i32 0, i32 0
  %5 = getelementptr inbounds nuw %"struct.std::_Vector_base<void *, std::allocator<void *>>::_Vector_impl_data", ptr %4, i32 0, i32 1
  %6 = load ptr, ptr %5, align 8, !tbaa !55
  %7 = getelementptr inbounds nuw %"struct.std::_Vector_base.9", ptr %3, i32 0, i32 0
  %8 = getelementptr inbounds nuw %"struct.std::_Vector_base<void *, std::allocator<void *>>::_Vector_impl_data", ptr %7, i32 0, i32 0
  %9 = load ptr, ptr %8, align 8, !tbaa !58
  %10 = ptrtoint ptr %6 to i64
  %11 = ptrtoint ptr %9 to i64
  %12 = sub i64 %10, %11
  %13 = sdiv exact i64 %12, 8
  ret i64 %13
}

; Function Attrs: mustprogress nounwind uwtable
define linkonce_odr hidden noundef nonnull align 8 dereferenceable(24) ptr @_ZNSt6vectorIS_IPvSaIS0_EESaIS2_EEixEm(ptr noundef nonnull align 8 dereferenceable(24) %0, i64 noundef %1) #7 comdat align 2 {
  %3 = alloca ptr, align 8
  %4 = alloca i64, align 8
  store ptr %0, ptr %3, align 8, !tbaa !42
  store i64 %1, ptr %4, align 8, !tbaa !46
  %5 = load ptr, ptr %3, align 8
  %6 = getelementptr inbounds nuw %"struct.std::_Vector_base", ptr %5, i32 0, i32 0
  %7 = getelementptr inbounds nuw %"struct.std::_Vector_base<std::vector<void *>, std::allocator<std::vector<void *>>>::_Vector_impl_data", ptr %6, i32 0, i32 0
  %8 = load ptr, ptr %7, align 8, !tbaa !47
  %9 = load i64, ptr %4, align 8, !tbaa !46
  %10 = getelementptr inbounds nuw %"class.std::vector.8", ptr %8, i64 %9
  ret ptr %10
}

; Function Attrs: mustprogress nounwind uwtable
define linkonce_odr hidden noundef i64 @_ZNKSt6vectorIS_IPvSaIS0_EESaIS2_EE4sizeEv(ptr noundef nonnull align 8 dereferenceable(24) %0) #7 comdat align 2 {
  %2 = alloca ptr, align 8
  store ptr %0, ptr %2, align 8, !tbaa !42
  %3 = load ptr, ptr %2, align 8
  %4 = getelementptr inbounds nuw %"struct.std::_Vector_base", ptr %3, i32 0, i32 0
  %5 = getelementptr inbounds nuw %"struct.std::_Vector_base<std::vector<void *>, std::allocator<std::vector<void *>>>::_Vector_impl_data", ptr %4, i32 0, i32 1
  %6 = load ptr, ptr %5, align 8, !tbaa !50
  %7 = getelementptr inbounds nuw %"struct.std::_Vector_base", ptr %3, i32 0, i32 0
  %8 = getelementptr inbounds nuw %"struct.std::_Vector_base<std::vector<void *>, std::allocator<std::vector<void *>>>::_Vector_impl_data", ptr %7, i32 0, i32 0
  %9 = load ptr, ptr %8, align 8, !tbaa !47
  %10 = ptrtoint ptr %6 to i64
  %11 = ptrtoint ptr %9 to i64
  %12 = sub i64 %10, %11
  %13 = sdiv exact i64 %12, 24
  ret i64 %13
}

; Function Attrs: mustprogress uwtable
define hidden void @_ZN6cvtest9ArrayTest5clearEv(ptr noundef nonnull align 8 dereferenceable(136) %0) unnamed_addr #6 align 2 {
  %2 = alloca ptr, align 8
  %3 = alloca i64, align 8
  %4 = alloca i32, align 4
  %5 = alloca i64, align 8
  store ptr %0, ptr %2, align 8, !tbaa !13
  %6 = load ptr, ptr %2, align 8
  call void @llvm.lifetime.start.p0(i64 8, ptr %3) #3
  store i64 0, ptr %3, align 8, !tbaa !46
  br label %7

7:                                                ; preds = %32, %1
  %8 = load i64, ptr %3, align 8, !tbaa !46
  %9 = getelementptr inbounds nuw %"class.cvtest::ArrayTest", ptr %6, i32 0, i32 7
  %10 = call noundef i64 @_ZNKSt6vectorIS_IPvSaIS0_EESaIS2_EE4sizeEv(ptr noundef nonnull align 8 dereferenceable(24) %9) #3
  %11 = icmp ult i64 %8, %10
  br i1 %11, label %13, label %12

12:                                               ; preds = %7
  store i32 2, ptr %4, align 4
  call void @llvm.lifetime.end.p0(i64 8, ptr %3) #3
  br label %35

13:                                               ; preds = %7
  call void @llvm.lifetime.start.p0(i64 8, ptr %5) #3
  store i64 0, ptr %5, align 8, !tbaa !46
  br label %14

14:                                               ; preds = %28, %13
  %15 = load i64, ptr %5, align 8, !tbaa !46
  %16 = getelementptr inbounds nuw %"class.cvtest::ArrayTest", ptr %6, i32 0, i32 7
  %17 = load i64, ptr %3, align 8, !tbaa !46
  %18 = call noundef nonnull align 8 dereferenceable(24) ptr @_ZNSt6vectorIS_IPvSaIS0_EESaIS2_EEixEm(ptr noundef nonnull align 8 dereferenceable(24) %16, i64 noundef %17) #3
  %19 = call noundef i64 @_ZNKSt6vectorIPvSaIS0_EE4sizeEv(ptr noundef nonnull align 8 dereferenceable(24) %18) #3
  %20 = icmp ult i64 %15, %19
  br i1 %20, label %22, label %21

21:                                               ; preds = %14
  store i32 5, ptr %4, align 4
  call void @llvm.lifetime.end.p0(i64 8, ptr %5) #3
  br label %31

22:                                               ; preds = %14
  %23 = getelementptr inbounds nuw %"class.cvtest::ArrayTest", ptr %6, i32 0, i32 7
  %24 = load i64, ptr %3, align 8, !tbaa !46
  %25 = call noundef nonnull align 8 dereferenceable(24) ptr @_ZNSt6vectorIS_IPvSaIS0_EESaIS2_EEixEm(ptr noundef nonnull align 8 dereferenceable(24) %23, i64 noundef %24) #3
  %26 = load i64, ptr %5, align 8, !tbaa !46
  %27 = call noundef nonnull align 8 dereferenceable(8) ptr @_ZNSt6vectorIPvSaIS0_EEixEm(ptr noundef nonnull align 8 dereferenceable(24) %25, i64 noundef %26) #3
  call void @cvRelease(ptr noundef %27)
  br label %28

28:                                               ; preds = %22
  %29 = load i64, ptr %5, align 8, !tbaa !46
  %30 = add i64 %29, 1
  store i64 %30, ptr %5, align 8, !tbaa !46
  br label %14, !llvm.loop !51

31:                                               ; preds = %21
  br label %32

32:                                               ; preds = %31
  %33 = load i64, ptr %3, align 8, !tbaa !46
  %34 = add i64 %33, 1
  store i64 %34, ptr %3, align 8, !tbaa !46
  br label %7, !llvm.loop !53

35:                                               ; preds = %12
  call void @_ZN6cvtest8BaseTest5clearEv(ptr noundef nonnull align 8 dereferenceable(56) %6)
  ret void
}