; Function Attrs: mustprogress uwtable
define hidden void @_ZN6cvtest9ArrayTest5clearEv(ptr noundef nonnull align 8 dereferenceable(136) %0) unnamed_addr #4 align 2 {
  %2 = getelementptr inbounds nuw i8, ptr %0, i64 72
  %3 = getelementptr inbounds nuw i8, ptr %0, i64 80
  %4 = load ptr, ptr %3, align 8, !tbaa !44
  %5 = load ptr, ptr %2, align 8, !tbaa !43
  %.not = icmp eq ptr %4, %5
  br i1 %.not, label %._crit_edge10, label %.preheader

.preheader:                                       ; preds = %1, %._crit_edge
  %6 = phi ptr [ %12, %._crit_edge ], [ %5, %1 ]
  %7 = phi ptr [ %13, %._crit_edge ], [ %4, %1 ]
  %.079 = phi i64 [ %14, %._crit_edge ], [ 0, %1 ]
  %8 = getelementptr inbounds nuw %"class.std::vector.8", ptr %6, i64 %.079
  %9 = getelementptr inbounds nuw i8, ptr %8, i64 8
  %10 = load ptr, ptr %9, align 8, !tbaa !49
  %11 = load ptr, ptr %8, align 8, !tbaa !45
  %.not11 = icmp eq ptr %10, %11
  br i1 %.not11, label %._crit_edge, label %.lr.ph

._crit_edge10:                                    ; preds = %._crit_edge, %1
  tail call void @_ZN6cvtest8BaseTest5clearEv(ptr noundef nonnull align 8 dereferenceable(56) %0)
  ret void

._crit_edge.loopexit:                             ; preds = %.lr.ph
  %.pre = load ptr, ptr %3, align 8, !tbaa !44
  br label %._crit_edge

._crit_edge:                                      ; preds = %._crit_edge.loopexit, %.preheader
  %12 = phi ptr [ %23, %._crit_edge.loopexit ], [ %6, %.preheader ]
  %13 = phi ptr [ %.pre, %._crit_edge.loopexit ], [ %7, %.preheader ]
  %14 = add nuw i64 %.079, 1
  %15 = ptrtoint ptr %13 to i64
  %16 = ptrtoint ptr %12 to i64
  %17 = sub i64 %15, %16
  %18 = sdiv exact i64 %17, 24
  %19 = icmp ult i64 %14, %18
  br i1 %19, label %.preheader, label %._crit_edge10, !llvm.loop !50

.lr.ph:                                           ; preds = %.preheader, %.lr.ph
  %20 = phi ptr [ %27, %.lr.ph ], [ %11, %.preheader ]
  %.08 = phi i64 [ %22, %.lr.ph ], [ 0, %.preheader ]
  %21 = getelementptr inbounds nuw ptr, ptr %20, i64 %.08
  tail call void @cvRelease(ptr noundef nonnull %21)
  %22 = add nuw i64 %.08, 1
  %23 = load ptr, ptr %2, align 8, !tbaa !43
  %24 = getelementptr inbounds nuw %"class.std::vector.8", ptr %23, i64 %.079
  %25 = getelementptr inbounds nuw i8, ptr %24, i64 8
  %26 = load ptr, ptr %25, align 8, !tbaa !49
  %27 = load ptr, ptr %24, align 8, !tbaa !45
  %28 = ptrtoint ptr %26 to i64
  %29 = ptrtoint ptr %27 to i64
  %30 = sub i64 %28, %29
  %31 = ashr exact i64 %30, 3
  %32 = icmp ult i64 %22, %31
  br i1 %32, label %.lr.ph, label %._crit_edge.loopexit, !llvm.loop !51
}